; Function Attrs: mustprogress uwtable
define internal noundef i32 @_ZN11flatbuffers12_GLOBAL__N_116FBSCodeGenerator18GenerateCodeStringERKNS_6ParserERKNSt7__cxx1112basic_stringIcSt11char_traitsIcESaIcEEERSA_(ptr nocapture noundef nonnull readonly align 8 dereferenceable(41) %this, ptr noundef nonnull align 8 dereferenceable(1784) %parser, ptr noundef nonnull align 8 dereferenceable(32) %filename, ptr noundef nonnull align 8 dereferenceable(32) %output) unnamed_addr #0 align 2 {
entry:
  %ref.tmp = alloca %"class.std::__cxx11::basic_string", align 8
  %no_log_ = getelementptr inbounds i8, ptr %this, i64 40
  %0 = load i8, ptr %no_log_, align 8
  %1 = and i8 %0, 1
  %tobool = icmp ne i8 %1, 0
  call fastcc void @_ZN11flatbuffers12_GLOBAL__N_111GenerateFBSERKNS_6ParserERKNSt7__cxx1112basic_stringIcSt11char_traitsIcESaIcEEEb(ptr noalias nonnull align 8 %ref.tmp, ptr noundef nonnull align 8 dereferenceable(1784) %parser, ptr noundef nonnull align 8 dereferenceable(32) %filename, i1 noundef zeroext %tobool)
  %call = call noundef nonnull align 8 dereferenceable(32) ptr @_ZNSt7__cxx1112basic_stringIcSt11char_traitsIcESaIcEEaSEOS4_(ptr noundef nonnull align 8 dereferenceable(32) %output, ptr noundef nonnull align 8 dereferenceable(32) %ref.tmp) #22
  call void @_ZNSt7__cxx1112basic_stringIcSt11char_traitsIcESaIcEED1Ev(ptr noundef nonnull align 8 dereferenceable(32) %ref.tmp) #22
  ret i32 0
}